; Function Attrs: nofree norecurse nosync nounwind memory(read, argmem: readwrite, inaccessiblemem: none) uwtable
define internal void @filter16_7x7(ptr noundef writeonly captures(none) %0, i32 noundef %1, float noundef %2, float noundef %3, ptr noundef readonly captures(none) %4, ptr noundef readonly captures(none) %5, i32 noundef %6, i32 %7, i32 %8, i32 %9, i32 %10) #6 {
  %12 = icmp sgt i32 %1, 0
  br i1 %12, label %.preheader.preheader, label %._crit_edge

.preheader.preheader:                             ; preds = %11
  %wide.trip.count = zext nneg i32 %1 to i64
  br label %.preheader

.preheader:                                       ; preds = %.preheader.preheader, %24
  %indvars.iv24 = phi i64 [ 0, %.preheader.preheader ], [ %indvars.iv.next25, %24 ]
  %13 = shl nuw nsw i64 %indvars.iv24, 1
  br label %14

14:                                               ; preds = %.preheader, %14
  %indvars.iv = phi i64 [ 0, %.preheader ], [ %indvars.iv.next, %14 ]
  %.021 = phi i32 [ 0, %.preheader ], [ %23, %14 ]
  %15 = getelementptr inbounds nuw ptr, ptr %5, i64 %indvars.iv
  %16 = load ptr, ptr %15, align 8, !tbaa !46
  %17 = getelementptr inbounds nuw i8, ptr %16, i64 %13
  %18 = load i16, ptr %17, align 2, !tbaa !82
  %19 = zext i16 %18 to i32
  %20 = getelementptr inbounds nuw i32, ptr %4, i64 %indvars.iv
  %21 = load i32, ptr %20, align 4, !tbaa !39
  %22 = mul nsw i32 %21, %19
  %23 = add nsw i32 %22, %.021
  %indvars.iv.next = add nuw nsw i64 %indvars.iv, 1
  %exitcond.not = icmp eq i64 %indvars.iv.next, 49
  br i1 %exitcond.not, label %24, label %14, !llvm.loop !114

24:                                               ; preds = %14
  %25 = sitofp i32 %23 to float
  %26 = tail call nsz float @llvm.fmuladd.f32(float %25, float %2, float %3)
  %27 = fadd nsz float %26, 5.000000e-01
  %28 = fptosi float %27 to i32
  %29 = icmp slt i32 %28, 0
  %..i = tail call i32 @llvm.smin.i32(i32 %6, i32 %28)
  %30 = trunc i32 %..i to i16
  %31 = select i1 %29, i16 0, i16 %30
  %32 = getelementptr inbounds nuw i16, ptr %0, i64 %indvars.iv24
  store i16 %31, ptr %32, align 2, !tbaa !103
  %indvars.iv.next25 = add nuw nsw i64 %indvars.iv24, 1
  %exitcond27.not = icmp eq i64 %indvars.iv.next25, %wide.trip.count
  br i1 %exitcond27.not, label %._crit_edge, label %.preheader, !llvm.loop !115

._crit_edge:                                      ; preds = %24, %11
  ret void
}